; Function Attrs: mustprogress nounwind uwtable
define dso_local void @_ZN5clang13ASTStmtReader24VisitOMPSectionDirectiveEPNS_19OMPSectionDirectiveE(ptr noundef nonnull readonly align 8 captures(none) dereferenceable(28) %0, ptr noundef captures(none) initializes((12, 20)) %1) local_unnamed_addr #0 align 2 {
  tail call void @_ZN5clang13ASTStmtReader27VisitOMPExecutableDirectiveEPNS_22OMPExecutableDirectiveE(ptr noundef nonnull align 8 dereferenceable(28) %0, ptr noundef %1)
  %3 = load ptr, ptr %0, align 8
  %4 = getelementptr inbounds nuw i8, ptr %3, i64 32
  %5 = getelementptr inbounds nuw i8, ptr %3, i64 24
  %6 = load i32, ptr %5, align 8
  %7 = add i32 %6, 1
  store i32 %7, ptr %5, align 8
  %8 = zext i32 %6 to i64
  %9 = load ptr, ptr %4, align 8
  %10 = getelementptr inbounds nuw i64, ptr %9, i64 %8
  %11 = load i64, ptr %10, align 8
  %12 = icmp ne i64 %11, 0
  %13 = zext i1 %12 to i8
  %14 = getelementptr inbounds nuw i8, ptr %1, i64 32
  store i8 %13, ptr %14, align 8
  ret void
}